; Function Attrs: nounwind uwtable
define dso_local i64 @BufferGetLSNAtomic(i32 noundef %0) local_unnamed_addr #0 {
  %2 = alloca %struct.SpinDelayStatus, align 8
  %3 = add i32 %0, -1
  %4 = load ptr, ptr @BufferDescriptors, align 8
  %5 = zext i32 %3 to i64
  %6 = icmp slt i32 %0, 0
  br i1 %6, label %BufferGetPage.exit, label %BufferGetPage.exit.thread

BufferGetPage.exit:                               ; preds = %1
  %7 = load ptr, ptr @LocalBufferBlockPointers, align 8
  %8 = xor i32 %0, -1
  %9 = zext nneg i32 %8 to i64
  %10 = getelementptr inbounds nuw ptr, ptr %7, i64 %9
  %11 = load ptr, ptr %10, align 8
  %12 = tail call zeroext i1 @DataChecksumsEnabled() #16
  br label %.thread19

BufferGetPage.exit.thread:                        ; preds = %1
  %13 = load ptr, ptr @BufferBlocks, align 8
  %14 = sext i32 %3 to i64
  %15 = shl nsw i64 %14, 13
  %16 = getelementptr inbounds nuw i8, ptr %13, i64 %15
  %17 = tail call zeroext i1 @DataChecksumsEnabled() #16
  %18 = load i8, ptr @wal_log_hints, align 1, !range !5
  %19 = trunc nuw i8 %18 to i1
  %or.cond = select i1 %17, i1 true, i1 %19
  br i1 %or.cond, label %.thread, label %.thread19

.thread19:                                        ; preds = %BufferGetPage.exit.thread, %BufferGetPage.exit
  %.0.i.i17 = phi ptr [ %11, %BufferGetPage.exit ], [ %16, %BufferGetPage.exit.thread ]
  %.val = load i64, ptr %.0.i.i17, align 4
  %20 = tail call i64 @llvm.fshl.i64(i64 %.val, i64 %.val, i64 32)
  br label %33

.thread:                                          ; preds = %BufferGetPage.exit.thread
  call void @llvm.lifetime.start.p0(i64 40, ptr nonnull %2) #16
  store i32 0, ptr %2, align 8
  %21 = getelementptr inbounds nuw i8, ptr %2, i64 4
  store i32 0, ptr %21, align 4
  %22 = getelementptr inbounds nuw i8, ptr %2, i64 8
  store i32 0, ptr %22, align 8
  %23 = getelementptr inbounds nuw i8, ptr %2, i64 16
  store ptr @.str.3, ptr %23, align 8
  %24 = getelementptr inbounds nuw i8, ptr %2, i64 24
  store i32 5707, ptr %24, align 8
  %25 = getelementptr inbounds nuw i8, ptr %2, i64 32
  store ptr @__func__.LockBufHdr, ptr %25, align 8
  %26 = getelementptr inbounds nuw %union.BufferDescPadded, ptr %4, i64 %5, i32 0, i32 2
  %27 = atomicrmw or ptr %26, i32 4194304 seq_cst, align 4
  %28 = and i32 %27, 4194304
  %.not2.i = icmp eq i32 %28, 0
  br i1 %.not2.i, label %LockBufHdr.exit, label %.lr.ph.i

.lr.ph.i:                                         ; preds = %.thread, %.lr.ph.i
  call void @perform_spin_delay(ptr noundef nonnull %2) #16
  %29 = atomicrmw or ptr %26, i32 4194304 seq_cst, align 4
  %30 = and i32 %29, 4194304
  %.not.i = icmp eq i32 %30, 0
  br i1 %.not.i, label %LockBufHdr.exit, label %.lr.ph.i

LockBufHdr.exit:                                  ; preds = %.lr.ph.i, %.thread
  %.lcssa.i = phi i32 [ %27, %.thread ], [ %29, %.lr.ph.i ]
  call void @finish_spin_delay(ptr noundef nonnull %2) #16
  call void @llvm.lifetime.end.p0(i64 40, ptr nonnull %2) #16
  %.val12 = load i64, ptr %16, align 4
  %31 = call i64 @llvm.fshl.i64(i64 %.val12, i64 %.val12, i64 32)
  call void asm sideeffect "", "~{memory},~{dirflag},~{fpsr},~{flags}"() #16, !srcloc !4
  %32 = and i32 %.lcssa.i, -4194305
  store volatile i32 %32, ptr %26, align 4
  br label %33

33:                                               ; preds = %LockBufHdr.exit, %.thread19
  %.0 = phi i64 [ %20, %.thread19 ], [ %31, %LockBufHdr.exit ]
  ret i64 %.0
}